; Function Attrs: nounwind uwtable
define range(i32 -1, 1) i32 @redisAppendFormattedCommand(ptr noundef captures(none) %0, ptr noundef %1, i64 noundef %2) local_unnamed_addr #0 {
  %4 = getelementptr inbounds nuw i8, ptr %0, i64 152
  %5 = load ptr, ptr %4, align 8, !tbaa !43
  %6 = tail call ptr @hi_sdscatlen(ptr noundef %5, ptr noundef %1, i64 noundef %2) #13
  %7 = icmp eq ptr %6, null
  br i1 %7, label %__redisAppendCommand.exit, label %11

__redisAppendCommand.exit:                        ; preds = %3
  %8 = getelementptr inbounds nuw i8, ptr %0, i64 8
  store i32 5, ptr %8, align 8, !tbaa !32
  %9 = getelementptr inbounds nuw i8, ptr %0, i64 12
  tail call void @llvm.memcpy.p0.p0.i64(ptr noundef nonnull align 4 dereferenceable(13) %9, ptr noundef nonnull align 1 dereferenceable(13) @.str.7, i64 13, i1 false)
  %10 = getelementptr inbounds nuw i8, ptr %0, i64 25
  store i8 0, ptr %10, align 1, !tbaa !22
  br label %12

11:                                               ; preds = %3
  store ptr %6, ptr %4, align 8, !tbaa !43
  br label %12

12:                                               ; preds = %__redisAppendCommand.exit, %11
  %13 = phi i32 [ 0, %11 ], [ -1, %__redisAppendCommand.exit ]
  ret i32 %13
}